; Function Attrs: mustprogress uwtable
define internal fastcc { i64, i8 } @_ZN6google8protobuf8compiler3cpp12_GLOBAL__N_19FixedSizeENS0_8internal19FieldDescriptorLite4TypeE(i32 noundef %type) unnamed_addr #3 personality ptr @__gxx_personality_v0 {
entry:
  %ref.tmp8 = alloca %"class.absl::lts_20230802::log_internal::LogMessageFatal", align 8
  %switch.tableidx = add i32 %type, -1
  %0 = icmp ult i32 %switch.tableidx, 18
  br i1 %0, label %switch.lookup, label %sw.epilog

sw.epilog:                                        ; preds = %entry
  call void @_ZN4absl12lts_2023080212log_internal15LogMessageFatalC1EPKci(ptr noundef nonnull align 8 dereferenceable(16) %ref.tmp8, ptr noundef nonnull @.str.46, i32 noundef 75) #29
  %call9 = invoke noundef nonnull align 8 dereferenceable(16) ptr @_ZN4absl12lts_2023080212log_internal10LogMessagelsILi16EEERS2_RAT__Kc(ptr noundef nonnull align 8 dereferenceable(16) %ref.tmp8, ptr noundef nonnull align 1 dereferenceable(16) @.str.47)
          to label %invoke.cont unwind label %lpad

invoke.cont:                                      ; preds = %sw.epilog
  call void @_ZN4absl12lts_2023080212log_internal15LogMessageFatalD1Ev(ptr noundef nonnull align 8 dereferenceable(16) %ref.tmp8) #28
  unreachable

lpad:                                             ; preds = %sw.epilog
  %1 = landingpad { ptr, i32 }
          cleanup
  call void @_ZN4absl12lts_2023080212log_internal15LogMessageFatalD1Ev(ptr noundef nonnull align 8 dereferenceable(16) %ref.tmp8) #28
  unreachable

switch.lookup:                                    ; preds = %entry
  %2 = zext nneg i32 %switch.tableidx to i64
  %switch.gep = getelementptr inbounds [18 x i8], ptr @switch.table._ZN6google8protobuf8compiler3cpp12_GLOBAL__N_19FixedSizeENS0_8internal19FieldDescriptorLite4TypeE, i64 0, i64 %2
  %switch.load = load i8, ptr %switch.gep, align 1
  %3 = zext nneg i32 %switch.tableidx to i64
  %switch.gep8 = getelementptr inbounds [18 x i64], ptr @switch.table._ZN6google8protobuf8compiler3cpp12_GLOBAL__N_19FixedSizeENS0_8internal19FieldDescriptorLite4TypeE.49, i64 0, i64 %3
  %switch.load9 = load i64, ptr %switch.gep8, align 8
  %.fca.0.insert = insertvalue { i64, i8 } poison, i64 %switch.load9, 0
  %.fca.1.insert = insertvalue { i64, i8 } %.fca.0.insert, i8 %switch.load, 1
  ret { i64, i8 } %.fca.1.insert
}